target datalayout = "e-m:e-p270:32:32-p271:32:32-p272:64:64-i64:64-i128:128-f80:128-n8:16:32:64-S128"
target triple = "x86_64-pc-linux-gnu"

%struct.YGValue = type { float, i32 }

$_ZN8facebook4yoga11isUndefinedITkSt14floating_pointfEEbT_ = comdat any

@YGValueZero = constant %struct.YGValue { float 0.000000e+00, i32 1 }, align 4
@YGValueUndefined = constant %struct.YGValue { float 0x7FF8000000000000, i32 0 }, align 4
@YGValueAuto = constant %struct.YGValue { float 0x7FF8000000000000, i32 3 }, align 4

; Function Attrs: mustprogress uwtable
define zeroext i1 @YGFloatIsUndefined(float noundef %0) #0 {
  %2 = alloca float, align 4
  store float %0, ptr %2, align 4, !tbaa !4
  %3 = load float, ptr %2, align 4, !tbaa !4
  %4 = call noundef zeroext i1 @_ZN8facebook4yoga11isUndefinedITkSt14floating_pointfEEbT_(float noundef %3)
  ret i1 %4
}

; Function Attrs: mustprogress nounwind uwtable
define linkonce_odr hidden noundef zeroext i1 @_ZN8facebook4yoga11isUndefinedITkSt14floating_pointfEEbT_(float noundef %0) #1 comdat {
  %2 = alloca float, align 4
  store float %0, ptr %2, align 4, !tbaa !4
  %3 = load float, ptr %2, align 4, !tbaa !4
  %4 = load float, ptr %2, align 4, !tbaa !4
  %5 = fcmp une float %3, %4
  ret i1 %5
}


!llvm.linker.options = !{}
!llvm.module.flags = !{!0, !1, !2, !3}

!0 = !{i32 1, !"wchar_size", i32 4}
!1 = !{i32 8, !"PIC Level", i32 2}
!2 = !{i32 7, !"uwtable", i32 2}
!3 = !{i32 7, !"frame-pointer", i32 2}
!4 = !{!5, !5, i64 0}
!5 = !{!"float", !6, i64 0}
!6 = !{!"omnipotent char", !7, i64 0}
!7 = !{!"Simple C++ TBAA"}
